EXPORTS
    CPRCHTS_spurt_synth @1
    CPRC_HTSVOICE_F0TRANS_LBL @2 DATA
    CPRC_apply_mlsa_filter @3
    CPRC_htsspurt_clear @4
    CPRC_htsspurt_convlf0 @5
    CPRC_htsspurt_delete @6
    CPRC_htsspurt_get_modelname @7
    CPRC_htsspurt_getalpha @8
    CPRC_htsspurt_getf0h1 @9
    CPRC_htsspurt_getf0h2 @10
    CPRC_htsspurt_getf0statesz @11
    CPRC_htsspurt_getframes @12
    CPRC_htsspurt_getlogf0i @13
    CPRC_htsspurt_getnophones @14
    CPRC_htsspurt_getorder @15
    CPRC_htsspurt_getpdur @16
    CPRC_htsspurt_getpduri @17
    CPRC_htsspurt_getstatesz @18
    CPRC_htsspurt_gettraj @19
    CPRC_htsspurt_isactive @20
    CPRC_htsspurt_loadavgmodel @21
    CPRC_htsspurt_logf0sz @22
    CPRC_htsspurt_lpc_to_mcep @23
    CPRC_htsspurt_lsp_to_lpc @24
    CPRC_htsspurt_lsp_to_mcep @25
    CPRC_htsspurt_mlsa_synth @26
    CPRC_htsspurt_model_trans @27
    CPRC_htsspurt_new @28
    CPRC_htsspurt_params @29
    CPRC_htsspurt_pdf2speech @30
    CPRC_htsspurt_pdf2speech_initialised @31
    CPRC_htsspurt_reset_params_out @32
    CPRC_htsspurt_save_output @33
    CPRC_htsspurt_set_active @34
    CPRC_htsspurt_set_inactive @35
    CPRC_htsspurt_set_labels @36
    CPRC_htsspurt_set_labels_file @37
    CPRC_htsspurt_set_params_out @38
    CPRC_htsspurt_setlogf0 @39
    CPRC_htsspurt_setmergepdur @40
    CPRC_htsspurt_setpdur @41
    CPRC_htsspurt_straight_synth @42
    CPRC_htsspurt_synth @43
    CPRC_htsspurt_voiced_frame @44
    CPRC_htsvoice_alpha @45
    CPRC_htsvoice_blockdis @46
    CPRC_htsvoice_delete @47
    CPRC_htsvoice_f0mean @48
    CPRC_htsvoice_f0transform @49
    CPRC_htsvoice_featuretype @50
    CPRC_htsvoice_fft @51
    CPRC_htsvoice_fmap @52
    CPRC_htsvoice_get_clusters @53
    CPRC_htsvoice_get_dur @54
    CPRC_htsvoice_get_htscmcep_dis @55
    CPRC_htsvoice_get_htscmcep_n @56
    CPRC_htsvoice_get_lf0 @57
    CPRC_htsvoice_get_model @58
    CPRC_htsvoice_get_nopdfs @59
    CPRC_htsvoice_get_params @60
    CPRC_htsvoice_get_pdfidx @61
    CPRC_htsvoice_get_rootnode @62
    CPRC_htsvoice_getorder @63
    CPRC_htsvoice_gv @64
    CPRC_htsvoice_lambda @65
    CPRC_htsvoice_load @66
    CPRC_htsvoice_load_tpdb @67
    CPRC_htsvoice_load_tpdb_dim @68
    CPRC_htsvoice_model_delete @69
    CPRC_htsvoice_model_toascii @70
    CPRC_htsvoice_model_val @71
    CPRC_htsvoice_new_empty @72
    CPRC_htsvoice_pdfval @73
    CPRC_htsvoice_px @74
    CPRC_htsvoice_pxblock @75
    CPRC_htsvoice_rho @76
    CPRC_htsvoice_set_pdfval @77
    CPRC_htsvoice_srate @78
    CPRC_htsvoice_straight @79
    CPRC_htsvoice_straight_fft @80
    CPRC_htsvoice_use_straight @81
    CPRC_paramspurt_delete @82
    CPRC_paramspurt_features_to_file @83
    CPRC_paramspurt_get_25percent_f0_vals @84
    CPRC_paramspurt_get_75percent_f0_vals @85
    CPRC_paramspurt_get_mlsa_vocoder @86
    CPRC_paramspurt_get_nr_phones @87
    CPRC_paramspurt_get_pdf_squence @88
    CPRC_paramspurt_get_phone_duration @89
    CPRC_paramspurt_get_phone_durs @90
    CPRC_paramspurt_get_speech_feature_values @91
    CPRC_paramspurt_get_voice @92
    CPRC_paramspurt_load_voice @93
    CPRC_paramspurt_mlsa_vocoder @94
    CPRC_paramspurt_new @95
    CPRC_paramspurt_new_empty @96
    CPRC_paramspurt_pdf_make_silent @97
    CPRC_paramspurt_pdf_overwrite_var @98
    CPRC_paramspurt_pdf_squence_add @99
    CPRC_paramspurt_pdf_squence_clear @100
    CPRC_paramspurt_pdf_squence_delete @101
    CPRC_paramspurt_pdf_squence_features_to_file @102
    CPRC_paramspurt_pdf_squence_get_feature_val @103
    CPRC_paramspurt_pdf_squence_get_gv_f @104
    CPRC_paramspurt_pdf_squence_get_name @105
    CPRC_paramspurt_pdf_squence_get_pdf_f @106
    CPRC_paramspurt_pdf_squence_get_pdf_idx @107
    CPRC_paramspurt_pdf_squence_get_speech_features @108
    CPRC_paramspurt_pdf_squence_new @109
    CPRC_paramspurt_pdf_squence_new_named @110
    CPRC_paramspurt_pdf_squence_pdfs_to_file @111
    CPRC_paramspurt_pdf_squence_rename @112
    CPRC_paramspurt_pdf_squence_sz @113
    CPRC_paramspurt_pdf_squence_time_to_idx @114
    CPRC_paramspurt_pdf_squence_to_values @115
    CPRC_paramspurt_pdfs_to_file @116
    CPRC_paramspurt_pdfs_to_speech_features @117
    CPRC_paramspurt_set_durations @118
    CPRC_paramspurt_set_logger @119
    CPRC_paramspurt_set_model_sequence @120
    CPRC_paramspurt_set_params_out @121
    CPRC_paramspurt_set_params_out_length @122
    CPRC_paramspurt_set_parent_spurt @123
    CPRC_paramspurt_vocoder @124
    CPRC_paramvocoder_excitation_delete @125
    CPRC_paramvocoder_excitation_init @126
    CPRC_paramvocoder_excitation_new @127
    CPRC_paramvocoder_excitation_no_mixing @128
    CPRC_paramvocoder_excitation_no_random_phase @129
    CPRC_paramvocoder_excitation_set_GD_cnr_freq @130
    CPRC_paramvocoder_excitation_set_GD_feedback @131
    CPRC_paramvocoder_excitation_set_GD_range @132
    CPRC_paramvocoder_excitation_set_GD_std_dev @133
    CPRC_paramvocoder_excitation_set_GD_weight_bandwidth @134
    CPRC_paramvocoder_excitation_set_minf0 @135
    CPRC_paramvocoder_excitation_set_uv_f0_scale @136
    CPRC_paramvocoder_excitation_straight_mixing @137
    CPRC_paramvocoder_gen_excitation @138
    CPRC_paramvocoder_mlsa_clear @139
    CPRC_paramvocoder_mlsa_delete @140
    CPRC_paramvocoder_mlsa_filter_A @141
    CPRC_paramvocoder_mlsa_filter_cascade @142
    CPRC_paramvocoder_mlsa_filter_fir @143
    CPRC_paramvocoder_mlsa_get_raw @144
    CPRC_paramvocoder_mlsa_init @145
    CPRC_paramvocoder_mlsa_init_from_paramvoice @146
    CPRC_paramvocoder_mlsa_new @147
    CPRC_paramvocoder_mlsa_run_vocoder @148
    CPRC_paramvocoder_mlsa_set_excitation @149
    CPRC_paramvocoder_mlsa_set_pade_coeffs @150
    CPRC_paramvocoder_mlsa_set_paramvocoder_exc @151
    CPRC_paramvocoder_remove_clipping @152
    CPRC_paramvoice_clear @153
    CPRC_paramvoice_data_clear @154
    CPRC_paramvoice_data_delete @155
    CPRC_paramvoice_data_display @156
    CPRC_paramvoice_data_new_empty @157
    CPRC_paramvoice_data_parse_str @158
    CPRC_paramvoice_delete @159
    CPRC_paramvoice_feature_delete @160
    CPRC_paramvoice_feature_display @161
    CPRC_paramvoice_feature_extra @162
    CPRC_paramvoice_feature_get_gv @163
    CPRC_paramvoice_feature_get_node_idx @164
    CPRC_paramvoice_feature_get_nodes @165
    CPRC_paramvoice_feature_get_nr_nodes @166
    CPRC_paramvoice_feature_gv_mode @167
    CPRC_paramvoice_feature_gv_read_file @168
    CPRC_paramvoice_feature_gv_skips @169
    CPRC_paramvoice_feature_is_f0_feature @170
    CPRC_paramvoice_feature_is_log @171
    CPRC_paramvoice_feature_load @172
    CPRC_paramvoice_feature_name @173
    CPRC_paramvoice_feature_new_empty @174
    CPRC_paramvoice_feature_nr_states @175
    CPRC_paramvoice_feature_order @176
    CPRC_paramvoice_feature_parse_str @177
    CPRC_paramvoice_feature_total_order @178
    CPRC_paramvoice_get_GD_cnr_freq @179
    CPRC_paramvoice_get_GD_feedback @180
    CPRC_paramvoice_get_GD_range @181
    CPRC_paramvoice_get_GD_std_dev @182
    CPRC_paramvoice_get_GD_weight_bandwidth @183
    CPRC_paramvoice_get_bndap_midpoints @184
    CPRC_paramvoice_get_clusters @185
    CPRC_paramvoice_get_data @186
    CPRC_paramvoice_get_delta_matrix @187
    CPRC_paramvoice_get_delta_wins @188
    CPRC_paramvoice_get_duration_feature @189
    CPRC_paramvoice_get_feature @190
    CPRC_paramvoice_get_feature_idx @191
    CPRC_paramvoice_get_feature_map @192
    CPRC_paramvoice_get_feature_name @193
    CPRC_paramvoice_get_feature_named @194
    CPRC_paramvoice_get_fftlen @195
    CPRC_paramvoice_get_frame_shift @196
    CPRC_paramvoice_get_header @197
    CPRC_paramvoice_get_mcep_alpha @198
    CPRC_paramvoice_get_minf0 @199
    CPRC_paramvoice_get_nr_features @200
    CPRC_paramvoice_get_nr_states @201
    CPRC_paramvoice_get_pade_order @202
    CPRC_paramvoice_get_pulse_bank @203
    CPRC_paramvoice_get_pulsebankmap @204
    CPRC_paramvoice_get_sample_rate @205
    CPRC_paramvoice_get_uv_f0_scale @206
    CPRC_paramvoice_get_vocoder @207
    CPRC_paramvoice_header_add_data @208
    CPRC_paramvoice_header_add_deltawin @209
    CPRC_paramvoice_header_add_feature @210
    CPRC_paramvoice_header_clear @211
    CPRC_paramvoice_header_data_idx @212
    CPRC_paramvoice_header_data_length @213
    CPRC_paramvoice_header_data_offset @214
    CPRC_paramvoice_header_delete @215
    CPRC_paramvoice_header_display @216
    CPRC_paramvoice_header_feature_idx @217
    CPRC_paramvoice_header_get_GD_cnr_freq @218
    CPRC_paramvoice_header_get_GD_feedback @219
    CPRC_paramvoice_header_get_GD_range @220
    CPRC_paramvoice_header_get_GD_std_dev @221
    CPRC_paramvoice_header_get_GD_weight_bandwidth @222
    CPRC_paramvoice_header_get_fftlen @223
    CPRC_paramvoice_header_get_minf0 @224
    CPRC_paramvoice_header_get_pade_order @225
    CPRC_paramvoice_header_get_uv_f0_scale @226
    CPRC_paramvoice_header_get_vocoder @227
    CPRC_paramvoice_header_gv_length @228
    CPRC_paramvoice_header_gv_offset @229
    CPRC_paramvoice_header_load_tpdb @230
    CPRC_paramvoice_header_new_empty @231
    CPRC_paramvoice_header_pdf_length @232
    CPRC_paramvoice_header_pdf_offset @233
    CPRC_paramvoice_header_tree_length @234
    CPRC_paramvoice_header_tree_offset @235
    CPRC_paramvoice_header_use_mixed_excitation @236
    CPRC_paramvoice_header_use_random_phase @237
    CPRC_paramvoice_header_use_straight_mixing @238
    CPRC_paramvoice_load_tpdb @239
    CPRC_paramvoice_new_empty @240
    CPRC_paramvoice_pdf_clear @241
    CPRC_paramvoice_pdf_delete @242
    CPRC_paramvoice_pdf_get_idx @243
    CPRC_paramvoice_pdf_get_inv_vars @244
    CPRC_paramvoice_pdf_get_mean_array @245
    CPRC_paramvoice_pdf_get_means @246
    CPRC_paramvoice_pdf_get_unvoiced @247
    CPRC_paramvoice_pdf_get_var_array @248
    CPRC_paramvoice_pdf_get_vars @249
    CPRC_paramvoice_pdf_get_voiced @250
    CPRC_paramvoice_pdf_new @251
    CPRC_paramvoice_pdf_read_file @252
    CPRC_paramvoice_pdf_vector_sz @253
    CPRC_paramvoice_question_check @254
    CPRC_paramvoice_question_delete @255
    CPRC_paramvoice_question_name @256
    CPRC_paramvoice_question_new @257
    CPRC_paramvoice_question_read_file @258
    CPRC_paramvoice_set_vocoder @259
    CPRC_paramvoice_tree_delete @260
    CPRC_paramvoice_tree_new @261
    CPRC_paramvoice_tree_node_clear @262
    CPRC_paramvoice_tree_node_delete @263
    CPRC_paramvoice_tree_node_get_idx @264
    CPRC_paramvoice_tree_node_name @265
    CPRC_paramvoice_tree_node_new @266
    CPRC_paramvoice_tree_node_no @267
    CPRC_paramvoice_tree_node_pdf @268
    CPRC_paramvoice_tree_node_yes @269
    CPRC_paramvoice_tree_read_file @270
    CPRC_paramvoice_tree_seek @271
    CPRC_paramvoice_use_mixed_excitation @272
    CPRC_paramvoice_use_random_phase @273
    CPRC_paramvoice_use_straight_mixing @274
    _Z10FindDurPDFP6_ModelP9_ModelSetfPf @275
    _Z10FindLF0PDFiP6_ModelP9_ModelSetf @276
    _Z10FindMcpPDFiP6_ModelP9_ModelSet @277
    _Z10SearchTreePcP5_Node @278
    _Z10dmpastecolP14DMATRIX_STRUCTlP14DVECTOR_STRUCTlli @279
    _Z10dmpasterowP14DMATRIX_STRUCTlP14DVECTOR_STRUCTlli @280
    _Z10dvceptompcP14DVECTOR_STRUCT @281
    _Z10dvfftshiftP14DVECTOR_STRUCT @282
    _Z10freadfloatPfliP6_iobuf @283
    _Z10freadshortPsliP6_iobuf @284
    _Z10fvfftshiftP14FVECTOR_STRUCT @285
    _Z10fwritelongPlliP6_iobuf @286
    _Z10getargfilePcPiP14OPTIONS_STRUCT @287
    _Z10kaiser_orgPdld @288
    _Z10lmpastecolP14LMATRIX_STRUCTlP14LVECTOR_STRUCTlli @289
    _Z10lmpasterowP14LMATRIX_STRUCTlP14LVECTOR_STRUCTlli @290
    _Z10makeimaptmP14DMATRIX_STRUCTddddd @291
    _Z10mlpgGradNWP10_PStreamGVidddiiii @292
    _Z10nblackmanfPfl @293
    _Z10pdf2speechP6_iobufS0_S0_P8_PStreamS2_P8_globalPP9_ModelSetP9_UttModelP13_VocoderSetup @294
    _Z10pdf2speechP6_iobufS0_S0_S0_P10_PStreamGVS2_S2_P8_globalPP9_ModelSetP9_UttModelP13_VocoderSetup @295
    _Z10plotcpowerP14DVECTOR_STRUCTdd @296
    _Z10sb_xcutsigP14DVECTOR_STRUCTll @297
    _Z10setchangediPPcP14OPTIONS_STRUCT @298
    _Z10sp_warn_onv @299
    _Z10ss_dvectorll @300
    _Z10ss_nrerrorPKc @301
    _Z10str2farrayPcPPf @302
    _Z10swapdoublePdl @303
    _Z10writesetupPc14OPTIONS_STRUCT @304
    _Z10xdminitcollddd @305
    _Z10xdminitrowlddd @306
    _Z10xdmriallocll @307
    _Z10xdvcumprodP14DVECTOR_STRUCT @308
    _Z10xdvdecibelP14DVECTOR_STRUCT @309
    _Z10xdvfftconvP14DVECTOR_STRUCTS0_l @310
    _Z10xdvfftfiltP14DVECTOR_STRUCTS0_l @311
    _Z10xdvhammingl @312
    _Z10xdvhanningl @313
    _Z10xdvlowpassdddd @314
    _Z10xdvnboxcarl @315
    _Z10xdvreallocP14DVECTOR_STRUCTl @316
    _Z10xdvriallocl @317
    _Z10xdvscfindvP14DVECTOR_STRUCTPKcd @318
    _Z10xfvcumprodP14FVECTOR_STRUCT @319
    _Z10xfvdecibelP14FVECTOR_STRUCT @320
    _Z10xfvfftconvP14FVECTOR_STRUCTS0_l @321
    _Z10xfvhammingl @322
    _Z10xfvhanningl @323
    _Z10xfvnboxcarl @324
    _Z10xfvreallocP14FVECTOR_STRUCTl @325
    _Z10xfvriallocl @326
    _Z10xgetpowsigP14DVECTOR_STRUCTS0_ddll @327
    _Z10xgrpdlywinddl @328
    _Z10xlmriallocll @329
    _Z10xlvcumprodP14LVECTOR_STRUCT @330
    _Z10xlvreallocP14LVECTOR_STRUCTl @331
    _Z10xlvriallocl @332
    _Z10xsvreallocP14SVECTOR_STRUCTl @333
    _Z10xsvriallocl @334
    _Z10zfixpfreq3P14DVECTOR_STRUCTS0_S0_S0_S0_i @335
    _Z11FreePStreamP8_PStream @336
    _Z11InitPStreamP8_PStream @337
    _Z11InitTreeSetP8_TreeSet @338
    _Z11calc_stepNWP10_PStreamGVidd @339
    _Z11dvceptospecP14DVECTOR_STRUCT @340
    _Z11dvspectocepP14DVECTOR_STRUCT @341
    _Z11fgetcol_txtPciP6_iobuf @342
    _Z11freaddoublePdliP6_iobuf @343
    _Z11fwritefloatPfliP6_iobuf @344
    _Z11fwriteshortPsliP6_iobuf @345
    _Z11getfilesizePci @346
    _Z11safe_mallocj @347
    _Z11setoptvaluePcP13OPTION_STRUCT @348
    _Z11sp_warn_offv @349
    _Z11specreshapeP14DMATRIX_STRUCTP14DVECTOR_STRUCTddddi @350
    _Z11ss_ceptompcP14DVECTOR_STRUCTl @351
    _Z11ss_xdmcloneP14DMATRIX_STRUCT @352
    _Z11ss_xgetwaveP14DVECTOR_STRUCTS0_S0_S0_ddddli @353
    _Z11xcep2mpmcepP14DVECTOR_STRUCTlliid @354
    _Z11xcepg2mcepgP14DMATRIX_STRUCTlliid @355
    _Z11xdmcextractP14DMATRIX_STRUCTP14LVECTOR_STRUCT @356
    _Z11xdmrextractP14DMATRIX_STRUCTP14LVECTOR_STRUCT @357
    _Z11xdvblackmanl @358
    _Z11xdvfftangleP14DVECTOR_STRUCTl @359
    _Z11xdvfftfiltmP14DVECTOR_STRUCTS0_l @360
    _Z11xdvfftpowerP14DVECTOR_STRUCTl @361
    _Z11xdvfiltfiltP14DVECTOR_STRUCTS0_S0_ @362
    _Z11xdvnhammingl @363
    _Z11xdvnhanningl @364
    _Z11xfgrpdlywinddl @365
    _Z11xfvblackmanl @366
    _Z11xfvfftpowerP14FVECTOR_STRUCTl @367
    _Z11xfvnhammingl @368
    _Z11xfvnhanningl @369
    _Z11xget_fftmatP14DMATRIX_STRUCTlli @370
    _Z11xgetdirnamePc @371
    _Z11xlmcextractP14LMATRIX_STRUCTP14LVECTOR_STRUCT @372
    _Z11xlmrextractP14LMATRIX_STRUCTP14LVECTOR_STRUCT @373
    _Z11zsmoothmapBP14DMATRIX_STRUCTddlddd @374
    _Z12FindQuestionP8_TreeSet5MtypePc @375
    _Z12FreeUttModelP9_UttModeli @376
    _Z12InitModelSetP9_ModelSet @377
    _Z12calc_R_and_rP10_PStreamGVi @378
    _Z12calc_R_and_rP8_PStreami @379
    _Z12calc_vargradP10_PStreamGVidd @380
    _Z12check_headerPcPdPii @381
    _Z12convoptvaluePcP13OPTION_STRUCT @382
    _Z12fwritedoublePdliP6_iobuf @383
    _Z12getbasicnamePc @384
    _Z12init_vocoderiP13_VocoderSetup @385
    _Z12safe_reallocPcj @386
    _Z12sb_blendspecP14DVECTOR_STRUCTS0_dddl @387
    _Z12sb_extractf0P14DVECTOR_STRUCTlddd @388
    _Z12sb_xfree_subv @389
    _Z12sb_xgetpswinP14DVECTOR_STRUCTdd @390
    _Z12sb_xwintablelPd @391
    _Z12ss_extractf0P14DVECTOR_STRUCTd @392
    _Z12ss_quicksortPdllP14LVECTOR_STRUCT @393
    _Z12ss_xfree_subv @394
    _Z12ss_xgdweightdddl @395
    _Z12ss_xqsortidxPdl @396
    _Z12sscanf_setupPcS_S_ @397
    _Z12waveampcheckP13DVECTOR_CLASSi @398
    _Z12writedmatrixPcP14DMATRIX_STRUCTi @399
    _Z12writedsignalPcP14DVECTOR_STRUCTi @400
    _Z12writelmatrixPcP14LMATRIX_STRUCTi @401
    _Z12writessignalPcP14SVECTOR_STRUCTi @402
    _Z12xdvfftfiltm2P14DVECTOR_STRUCTS0_l @403
    _Z12xdvfftgrpdlyP14DVECTOR_STRUCTl @404
    _Z12xdvnblackmanl @405
    _Z12xfvnblackmanl @406
    _Z12xget_cep2spwP14DVECTOR_STRUCTl @407
    _Z12xget_cep2vecP14DVECTOR_STRUCTl @408
    _Z12xget_spw2cepP14DVECTOR_STRUCTli @409
    _Z12xget_vec2cepP14DVECTOR_STRUCTli @410
    _Z12xphstranswinl @411
    _Z12xreaddmatrixPcli @412
    _Z12xreaddsignalPcii @413
    _Z12xreadfsignalPcii @414
    _Z12xreadlmatrixPcli @415
    _Z12xreadssignalPcii @416
    _Z13FreePStreamGVP10_PStreamGV @417
    _Z13FreeQuestionsP9_Question @418
    _Z13FreeTreesFileP8_TreeSet5Mtype @419
    _Z13InitPStreamGVP10_PStreamGV @420
    _Z13LoadQuestionsP6_iobufP9_Question5Mtype @421
    _Z13LoadTreesFileP8_TreeSet5Mtype @422
    _Z13aperiodiccompP14DMATRIX_STRUCTdP14DVECTOR_STRUCTd @423
    _Z13calc_varstatsP10_PStreamGViPdS1_ @424
    _Z13calc_varstatsPPdiiS_S_S_ @425
    _Z13dvreadcol_txtPciP14DVECTOR_STRUCT @426
    _Z13freadshorttodPdliP6_iobuf @427
    _Z13getnumcol_txtPc @428
    _Z13getnumrow_txtPc @429
    _Z13sb_xgetfftpowP14DVECTOR_STRUCTS0_ld @430
    _Z13sb_xlowcutwindddl @431
    _Z13simple_gnoised @432
    _Z13simple_randomv @433
    _Z13ss_getexactf0dddd @434
    _Z13ss_getmixrateddPdS_i @435
    _Z13ss_randomspecP14DVECTOR_STRUCTS0_S0_dddl @436
    _Z13ss_xceptospecP14DVECTOR_STRUCTS0_l @437
    _Z13ss_xceptowaveP14DVECTOR_STRUCTS0_S0_l @438
    _Z13ss_xgetgrpdlyP14DVECTOR_STRUCTS0_dddl @439
    _Z13ss_xgetuvwaveP14DVECTOR_STRUCTS0_dl @440
    _Z13ss_xgrpdlywinddl @441
    _Z13ss_xlowcutwindddl @442
    _Z13ss_xmulti_matP14DMATRIX_STRUCTS0_ @443
    _Z13ss_xtrans_matP14DMATRIX_STRUCT @444
    _Z13vocoder_psresP13DVECTOR_CLASSPdiddP13_VocoderSetupS0_ @445
    _Z13xcepg2mpmcepgP14DMATRIX_STRUCTlliid @446
    _Z13xget_cepg2spgP14DMATRIX_STRUCTl @447
    _Z13xget_spg2cepgP14DMATRIX_STRUCTli @448
    _Z13xgetbasicnamePc @449
    _Z13xgetexactnamePc @450
    _Z13xread_wavfilePcPdi @451
    _Z13xspg2pow_normP14DMATRIX_STRUCT @452
    _Z14FreeModelFilesP9_ModelSet @453
    _Z14LoadModelFilesP9_ModelSet @454
    _Z14aperiodicpart4P14DVECTOR_STRUCTS0_dddli @455
    _Z14dvwritessignalPcP14DVECTOR_STRUCTi @456
    _Z14getkaiserparamddPdPl @457
    _Z14plotcandf0fileP14DMATRIX_STRUCTS0_P14DVECTOR_STRUCTPcddl @458
    _Z14sb_xfindregionP14DVECTOR_STRUCTdi @459
    _Z14sb_xsmoothfreqP14DVECTOR_STRUCTdl @460
    _Z14sb_xtimeexpandP14DVECTOR_STRUCTP14LVECTOR_STRUCTll @461
    _Z14ss_xextractcepP14DMATRIX_STRUCTdP14LVECTOR_STRUCTl @462
    _Z14ss_xfgrpdlywinddl @463
    _Z14ss_xinvmat_svdP14DMATRIX_STRUCTd @464
    _Z14ss_xspectowaveP14DVECTOR_STRUCTl @465
    _Z14ss_xvec2matcolP14DVECTOR_STRUCT @466
    _Z14synthesis_bodyP13DMATRIX_CLASSS0_P13DVECTOR_CLASSddP8_globalPP6_iobufiiPl @467
    _Z14writed2fmatrixPcP14DMATRIX_STRUCTi @468
    _Z14writed2fsignalPcP14DVECTOR_STRUCTi @469
    _Z14xdvreadcol_txtPci @470
    _Z14xdvreadssignalPcii @471
    _Z14xget_interp_f0P14DVECTOR_STRUCTdd @472
    _Z14xgethannexpwindl @473
    _Z14xreadf2dmatrixPcli @474
    _Z14xreadf2dsignalPcii @475
    _Z15fwritedoubletosPdliP6_iobuf @476
    _Z15getfilesize_txtPc @477
    _Z15plotcandf0file2P14DMATRIX_STRUCTS0_P14DVECTOR_STRUCTPcddl @478
    _Z15randsort_numcmpPKvS0_ @479
    _Z15readdvector_txtPcP14DVECTOR_STRUCT @480
    _Z15sb_halfrectspecP14DVECTOR_STRUCT @481
    _Z15sb_xgetdbfftpowP14DVECTOR_STRUCTS0_d @482
    _Z15sb_xgetfftangleP14DVECTOR_STRUCTS0_l @483
    _Z15sb_xleveleqspecP14DVECTOR_STRUCTdl @484
    _Z15ss_free_dvectorPdl @485
    _Z15ss_waveampcheckP14DVECTOR_STRUCT @486
    _Z15ss_xgetexactcepP14DVECTOR_STRUCTS0_dl @487
    _Z15ss_xphstranswinl @488
    _Z15writecandf0fileP14DVECTOR_STRUCTS0_Pcl @489
    _Z15xdvread_cf0filePcPd @490
    _Z15xget_spg2powvecP14DMATRIX_STRUCTi @491
    _Z15xread_dfcep2spgPclliiiddd @492
    _Z15xreadheader_wavPc @493
    _Z16Cholesky_forwardP10_PStreamGV @494
    _Z16Cholesky_forwardP8_PStream @495
    _Z16cleaninglownoiseP14DVECTOR_STRUCTdd @496
    _Z16cspb_xgetiregionP14DVECTOR_STRUCTddd @497
    _Z16cspb_xgetwaveletP14DVECTOR_STRUCTddi @498
    _Z16optimumsmoothingdd @499
    _Z16psres_mix_rndphsP13DMATRIX_CLASSP13DVECTOR_CLASSS2_lS2_P12RPHAPF_CLASSdii @500
    _Z16sb_xgetdoublewindld @501
    _Z16sb_xgetfftgrpdlyP14DVECTOR_STRUCTS0_l @502
    _Z16sb_xgetsinglewindlPd @503
    _Z16sb_xgetsmoothwind @504
    _Z16sb_xsmoothfreq_sP14DVECTOR_STRUCTdl @505
    _Z16sb_xtconstuv_c03P14DMATRIX_STRUCTP14DVECTOR_STRUCTS2_S2_ddddl @506
    _Z16ss_randomspec_f0P14DVECTOR_STRUCTdddddddddl @507
    _Z16ss_xgetmixweightP14LVECTOR_STRUCTdddl @508
    _Z16ss_xgetrandomapfP14DVECTOR_STRUCTS0_dddl @509
    _Z16ss_xspectouvwaveP14DVECTOR_STRUCTdl @510
    _Z16writedvector_txtPcP14DVECTOR_STRUCT @511
    _Z16writessignal_wavPcP14SVECTOR_STRUCTd @512
    _Z16xget_wave2powvecP14DVECTOR_STRUCTdddli @513
    _Z16xreaddvector_txtPc @514
    _Z17Cholesky_backwardP10_PStreamGVi @515
    _Z17Cholesky_backwardP8_PStreami @516
    _Z17sb_xgetdoublewin2P14DVECTOR_STRUCTdld @517
    _Z17sb_xgetsinglewin2dld @518
    _Z17sb_xsmoothfreq_s2P14DVECTOR_STRUCTdl @519
    _Z17ss_fractpitchspecP14DVECTOR_STRUCTdl @520
    _Z17ss_xceptospec_mixP14DVECTOR_STRUCTS0_S0_l @521
    _Z17ss_xceptowave_mixP14DVECTOR_STRUCTS0_S0_S0_l @522
    _Z17ss_xfractpitchapfdl @523
    _Z17ss_xfractpitchtbll @524
    _Z17ss_xgdtorandomapfP14DVECTOR_STRUCTl @525
    _Z18aperiodiccomp_unitP14DMATRIX_STRUCTdPld @526
    _Z18multanalytFineCSPBP14DVECTOR_STRUCTddlldi @527
    _Z18sb_xgetsmoothwin_sdl @528
    _Z18sb_xsmoothfreq_c03P14DVECTOR_STRUCTdlS0_ @529
    _Z18sb_xsmoothtime_c03P14DMATRIX_STRUCTP14DVECTOR_STRUCTdd @530
    _Z19plotcandf0file_prunP14DMATRIX_STRUCTS0_P14DVECTOR_STRUCTPcddddl @531
    _Z19sb_xgetsmoothwin_s2dl @532
    _Z19ss_xextractcep_tb06P14DMATRIX_STRUCTlP14LVECTOR_STRUCTlP14DVECTOR_STRUCTd @533
    _Z19ss_xgetrandomapf_f0dddddddddl @534
    _Z19straight_synth_tb06P14DMATRIX_STRUCTP14DVECTOR_STRUCTS2_dddddddddiiii @535
    _Z20plotcandf0file2_prunP14DMATRIX_STRUCTS0_P14DVECTOR_STRUCTPcddddl @536
    _Z20ss_waveampcheck_tb06P14DVECTOR_STRUCTdd @537
    _Z20synthesis_body_psolaP13DMATRIX_CLASSS0_P13DVECTOR_CLASSddP8_globalPii @538
    _Z21CPRC_LoadModelFilesApP9_ModelSeti @539
    _Z21straight_synth_tb06caP14DMATRIX_STRUCTP14DVECTOR_STRUCTddddddddddS0_S2_iiii @540
    _Z21xdvwin_aperiodicpart4ldd @541
    _Z22CPRC_LoadModelFilesDurP9_ModelSet @542
    _Z22CPRC_LoadModelFilesLf0P9_ModelSeti @543
    _Z23CPRC_LoadModelFilesMcepP9_ModelSeti @544
    _Z3ai0d @545
    _Z3fftPdS_li @546
    _Z3fixd @547
    _Z3remdd @548
    _Z3rndPm @549
    _Z4b2enPdidP13_VocoderSetup @550
    _Z4b2mcPdS_id @551
    _Z4c2irPdiS_i @552
    _Z4cexpPdS_ @553
    _Z4cfftP15DCOMPLEX_STRUCTi @554
    _Z4clogPdS_ @555
    _Z4fftfPfS_li @556
    _Z4finvd @557
    _Z4fir1ld @558
    _Z4ftosPcd @559
    _Z4mc2bPdS_id @560
    _Z4mc2bPfPdid @561
    _Z4mlpgP10_PStreamGV @562
    _Z4mlpgP8_PStream @563
    _Z4mseqP13_VocoderSetup @564
    _Z4sincdd @565
    _Z4srndm @566
    _Z5IsNumPc @567
    _Z5cexpfPfS_ @568
    _Z5chebyldd @569
    _Z5clogfPfS_ @570
    _Z5dcexpP15DCOMPLEX_STRUCT @571
    _Z5dvabsP14DVECTOR_STRUCT @572
    _Z5dvdotP14DVECTOR_STRUCTS0_ @573
    _Z5dvexpP14DVECTOR_STRUCT @574
    _Z5dvfftP14DVECTOR_STRUCT @575
    _Z5dvlifP14DVECTOR_STRUCTll @576
    _Z5dvlogP14DVECTOR_STRUCT @577
    _Z5dvmaxP14DVECTOR_STRUCTPl @578
    _Z5dvminP14DVECTOR_STRUCTPl @579
    _Z5dvsumP14DVECTOR_STRUCT @580
    _Z5fillzPdi @581
    _Z5freqtPdiS_idP13_VocoderSetup @582
    _Z5freqtPdlS_ld @583
    _Z5fvabsP14FVECTOR_STRUCT @584
    _Z5fvdotP14FVECTOR_STRUCTS0_ @585
    _Z5fvexpP14FVECTOR_STRUCT @586
    _Z5fvfftP14FVECTOR_STRUCT @587
    _Z5fvlogP14FVECTOR_STRUCT @588
    _Z5fvmaxP14FVECTOR_STRUCTPl @589
    _Z5fvminP14FVECTOR_STRUCTPl @590
    _Z5fvsumP14FVECTOR_STRUCT @591
    _Z5getfpPcS_ @592
    _Z5gets0Pci @593
    _Z5lvabsP14LVECTOR_STRUCT @594
    _Z5lvmaxP14LVECTOR_STRUCTPl @595
    _Z5lvminP14LVECTOR_STRUCTPl @596
    _Z5lvsumP14LVECTOR_STRUCT @597
    _Z5movemPdS_i @598
    _Z5svabsP14SVECTOR_STRUCT @599
    _Z5svmaxP14SVECTOR_STRUCTPl @600
    _Z5svminP14SVECTOR_STRUCTPl @601
    _Z5svsumP14SVECTOR_STRUCT @602
    _Z5usage14OPTIONS_STRUCT @603
    _Z5xvfftP14DVECTOR_STRUCTS0_li @604
    _Z5zGcBsP14DVECTOR_STRUCTd @605
    _Z6IsTreeP5_TreePc @606
    _Z6PMatchPcS_ @607
    _Z6QMatchPcP9_Question @608
    _Z6a2dbilP14DVECTOR_STRUCTddi @609
    _Z6buttapl @610
    _Z6butterld @611
    _Z6chebapldPd @612
    _Z6dalloci @613
    _Z6dccopyP15DCOMPLEX_STRUCTP14DVECTOR_STRUCTS2_ @614
    _Z6dmimagP14DMATRIX_STRUCT @615
    _Z6dmnumsP14DMATRIX_STRUCTlld @616
    _Z6dmrealP14DMATRIX_STRUCT @617
    _Z6dvconjP14DVECTOR_STRUCT @618
    _Z6dvcopyP14DVECTOR_STRUCTS0_ @619
    _Z6dvdumpP14DVECTOR_STRUCT @620
    _Z6dvifftP14DVECTOR_STRUCT @621
    _Z6dvimagP14DVECTOR_STRUCT @622
    _Z6dvinitP14DVECTOR_STRUCTddd @623
    _Z6dvoperP14DVECTOR_STRUCTPKcS0_ @624
    _Z6dvrealP14DVECTOR_STRUCT @625
    _Z6dvsignP14DVECTOR_STRUCT @626
    _Z6dvsortP14DVECTOR_STRUCT @627
    _Z6fccopyP15FCOMPLEX_STRUCTP14FVECTOR_STRUCTS2_ @628
    _Z6fir1bpldd @629
    _Z6flageqPc14OPTIONS_STRUCT @630
    _Z6fvconjP14FVECTOR_STRUCT @631
    _Z6fvcopyP14FVECTOR_STRUCTS0_ @632
    _Z6fvdumpP14FVECTOR_STRUCT @633
    _Z6fvifftP14FVECTOR_STRUCT @634
    _Z6fvimagP14FVECTOR_STRUCT @635
    _Z6fvinitP14FVECTOR_STRUCTfff @636
    _Z6fvoperP14FVECTOR_STRUCTPKcS0_ @637
    _Z6fvrealP14FVECTOR_STRUCT @638
    _Z6fvsignP14FVECTOR_STRUCT @639
    _Z6get_enPdS_idP13_VocoderSetup @640
    _Z6interpP14DVECTOR_STRUCTl @641
    _Z6kaiserPdld @642
    _Z6lmimagP14LMATRIX_STRUCT @643
    _Z6lmnumsP14LMATRIX_STRUCTlll @644
    _Z6lmrealP14LMATRIX_STRUCT @645
    _Z6lvconjP14LVECTOR_STRUCT @646
    _Z6lvcopyP14LVECTOR_STRUCTS0_ @647
    _Z6lvdumpP14LVECTOR_STRUCT @648
    _Z6lvimagP14LVECTOR_STRUCT @649
    _Z6lvinitP14LVECTOR_STRUCTlll @650
    _Z6lvoperP14LVECTOR_STRUCTPKcS0_ @651
    _Z6lvrealP14LVECTOR_STRUCT @652
    _Z6lvsignP14LVECTOR_STRUCT @653
    _Z6mlsadfdPdidiS_P13_VocoderSetup @654
    _Z6mod_enPdS_idP13_VocoderSetupd @655
    _Z6sm_parP10_PStreamGVi @656
    _Z6ss_svdP14DMATRIX_STRUCTP14DVECTOR_STRUCTS0_ @657
    _Z6svconjP14SVECTOR_STRUCT @658
    _Z6svcopyP14SVECTOR_STRUCTS0_ @659
    _Z6svdumpP14SVECTOR_STRUCT @660
    _Z6svimagP14SVECTOR_STRUCT @661
    _Z6svinitP14SVECTOR_STRUCTlll @662
    _Z6svoperP14SVECTOR_STRUCTPKcS0_ @663
    _Z6svrealP14SVECTOR_STRUCT @664
    _Z6svsignP14SVECTOR_STRUCT @665
    _Z6xdcabsP15DCOMPLEX_STRUCT @666
    _Z6xdcexpP15DCOMPLEX_STRUCT @667
    _Z6xdvabsP14DVECTOR_STRUCT @668
    _Z6xdvcatP14DVECTOR_STRUCTS0_ @669
    _Z6xdvcutP14DVECTOR_STRUCTll @670
    _Z6xdvexpP14DVECTOR_STRUCT @671
    _Z6xdvfftP14DVECTOR_STRUCTl @672
    _Z6xdvlogP14DVECTOR_STRUCT @673
    _Z6xdvsetPdl @674
    _Z6xdvtofP14DVECTOR_STRUCT @675
    _Z6xdvtolP14DVECTOR_STRUCT @676
    _Z6xdvtosP14DVECTOR_STRUCT @677
    _Z6xfreadPviiP6_iobuf @678
    _Z6xfvabsP14FVECTOR_STRUCT @679
    _Z6xfvcatP14FVECTOR_STRUCTS0_ @680
    _Z6xfvcutP14FVECTOR_STRUCTll @681
    _Z6xfvexpP14FVECTOR_STRUCT @682
    _Z6xfvfftP14FVECTOR_STRUCTl @683
    _Z6xfvlogP14FVECTOR_STRUCT @684
    _Z6xfvsetPfl @685
    _Z6xfvtodP14FVECTOR_STRUCT @686
    _Z6xlvabsP14LVECTOR_STRUCT @687
    _Z6xlvcatP14LVECTOR_STRUCTS0_ @688
    _Z6xlvcutP14LVECTOR_STRUCTll @689
    _Z6xlvsetPll @690
    _Z6xsvabsP14SVECTOR_STRUCT @691
    _Z6xsvcatP14SVECTOR_STRUCTS0_ @692
    _Z6xsvcutP14SVECTOR_STRUCTll @693
    _Z6xsvsetPsl @694
    _Z6xsvtodP14SVECTOR_STRUCT @695
    _Z6xsvtofP14SVECTOR_STRUCT @696
    _Z6xsvtolP14SVECTOR_STRUCT @697
    _Z7DPMatchPcS_ii @698
    _Z7ai0_orgd @699
    _Z7dcalloci @700
    _Z7decibelPdl @701
    _Z7dmfdumpP14DMATRIX_STRUCTP6_iobuf @702
    _Z7dmifreeP14DMATRIX_STRUCT @703
    _Z7dminumsP14DMATRIX_STRUCTlld @704
    _Z7dvangleP14DVECTOR_STRUCT @705
    _Z7dvfdumpP14DVECTOR_STRUCTP6_iobuf @706
    _Z7dvifreeP14DVECTOR_STRUCT @707
    _Z7dviinitP14DVECTOR_STRUCTddd @708
    _Z7dvmorphP14DVECTOR_STRUCTS0_d @709
    _Z7dvpasteP14DVECTOR_STRUCTS0_lli @710
    _Z7dvscmaxP14DVECTOR_STRUCTd @711
    _Z7dvscminP14DVECTOR_STRUCTd @712
    _Z7dvsqsumP14DVECTOR_STRUCT @713
    _Z7fcalloci @714
    _Z7fftturnPdS_l @715
    _Z7fvfdumpP14FVECTOR_STRUCTP6_iobuf @716
    _Z7fvifreeP14FVECTOR_STRUCT @717
    _Z7fviinitP14FVECTOR_STRUCTfff @718
    _Z7fvpasteP14FVECTOR_STRUCTS0_lli @719
    _Z7fvscmaxP14FVECTOR_STRUCTf @720
    _Z7fvscminP14FVECTOR_STRUCTf @721
    _Z7fvsqsumP14FVECTOR_STRUCT @722
    _Z7getlinePc @723
    _Z7hammingPdl @724
    _Z7hanningPdl @725
    _Z7hanningPdlll @726
    _Z7labeleqPcP14OPTIONS_STRUCT @727
    _Z7lmfdumpP14LMATRIX_STRUCTP6_iobuf @728
    _Z7lmifreeP14LMATRIX_STRUCT @729
    _Z7lminumsP14LMATRIX_STRUCTlll @730
    _Z7lvfdumpP14LVECTOR_STRUCTP6_iobuf @731
    _Z7lvifreeP14LVECTOR_STRUCT @732
    _Z7lviinitP14LVECTOR_STRUCTlll @733
    _Z7lvpasteP14LVECTOR_STRUCTS0_lli @734
    _Z7lvscmaxP14LVECTOR_STRUCTl @735
    _Z7lvscminP14LVECTOR_STRUCTl @736
    _Z7lvsqsumP14LVECTOR_STRUCT @737
    _Z7mlsadf1dPdidiS_P13_VocoderSetup @738
    _Z7mlsadf2dPdidiS_P13_VocoderSetup @739
    _Z7mlsafirdPdidS_ @740
    _Z7nboxcarPdl @741
    _Z7nrandomP13_VocoderSetup @742
    _Z7rfftabsPdl @743
    _Z7rfftpowPdl @744
    _Z7sgetcolPciS_ @745
    _Z7sigmoidddd @746
    _Z7svfdumpP14SVECTOR_STRUCTP6_iobuf @747
    _Z7svifreeP14SVECTOR_STRUCT @748
    _Z7sviinitP14SVECTOR_STRUCTlll @749
    _Z7svpasteP14SVECTOR_STRUCTS0_lli @750
    _Z7svscmaxP14SVECTOR_STRUCTs @751
    _Z7svscminP14SVECTOR_STRUCTs @752
    _Z7svsqsumP14SVECTOR_STRUCT @753
    _Z7varconvPPdiid @754
    _Z7vocoderPdS_iiP6_iobufP8_globalPP13_VocoderSetup @755
    _Z7vocoderdPfiP6_iobufP8_globalPP13_VocoderSetup @756
    _Z7xdcfreeP15DCOMPLEX_STRUCT @757
    _Z7xdmcmaxP14DMATRIX_STRUCT @758
    _Z7xdmcminP14DMATRIX_STRUCT @759
    _Z7xdmfreeP14DMATRIX_STRUCT @760
    _Z7xdmnumslld @761
    _Z7xdmrmaxP14DMATRIX_STRUCT @762
    _Z7xdmrminP14DMATRIX_STRUCT @763
    _Z7xdvcabsP14DVECTOR_STRUCTS0_l @764
    _Z7xdvcexpP14DVECTOR_STRUCTS0_l @765
    _Z7xdvconjP14DVECTOR_STRUCT @766
    _Z7xdvconvP14DVECTOR_STRUCTS0_ @767
    _Z7xdvcplxP14DVECTOR_STRUCTS0_ @768
    _Z7xdvfindP14DVECTOR_STRUCT @769
    _Z7xdvfreeP14DVECTOR_STRUCT @770
    _Z7xdvifftP14DVECTOR_STRUCTl @771
    _Z7xdvimagP14DVECTOR_STRUCT @772
    _Z7xdvinitddd @773
    _Z7xdvoperP14DVECTOR_STRUCTPKcS0_ @774
    _Z7xdvrealP14DVECTOR_STRUCT @775
    _Z7xdvsignP14DVECTOR_STRUCT @776
    _Z7xfcfreeP15FCOMPLEX_STRUCT @777
    _Z7xfvconjP14FVECTOR_STRUCT @778
    _Z7xfvcplxP14FVECTOR_STRUCTS0_ @779
    _Z7xfvfindP14FVECTOR_STRUCT @780
    _Z7xfvfreeP14FVECTOR_STRUCT @781
    _Z7xfvifftP14FVECTOR_STRUCTl @782
    _Z7xfvimagP14FVECTOR_STRUCT @783
    _Z7xfvinitfff @784
    _Z7xfvoperP14FVECTOR_STRUCTPKcS0_ @785
    _Z7xfvrealP14FVECTOR_STRUCT @786
    _Z7xfvsignP14FVECTOR_STRUCT @787
    _Z7xlmcmaxP14LMATRIX_STRUCT @788
    _Z7xlmcminP14LMATRIX_STRUCT @789
    _Z7xlmfreeP14LMATRIX_STRUCT @790
    _Z7xlmnumslll @791
    _Z7xlmrmaxP14LMATRIX_STRUCT @792
    _Z7xlmrminP14LMATRIX_STRUCT @793
    _Z7xlvconjP14LVECTOR_STRUCT @794
    _Z7xlvcplxP14LVECTOR_STRUCTS0_ @795
    _Z7xlvfindP14LVECTOR_STRUCT @796
    _Z7xlvfreeP14LVECTOR_STRUCT @797
    _Z7xlvimagP14LVECTOR_STRUCT @798
    _Z7xlvinitlll @799
    _Z7xlvoperP14LVECTOR_STRUCTPKcS0_ @800
    _Z7xlvrealP14LVECTOR_STRUCT @801
    _Z7xlvsignP14LVECTOR_STRUCT @802
    _Z7xsvconjP14SVECTOR_STRUCT @803
    _Z7xsvcplxP14SVECTOR_STRUCTS0_ @804
    _Z7xsvfindP14SVECTOR_STRUCT @805
    _Z7xsvfreeP14SVECTOR_STRUCT @806
    _Z7xsvimagP14SVECTOR_STRUCT @807
    _Z7xsvinitlll @808
    _Z7xsvoperP14SVECTOR_STRUCTPKcS0_ @809
    _Z7xsvrealP14SVECTOR_STRUCT @810
    _Z7xsvsignP14SVECTOR_STRUCT @811
    _Z7znrmlcfd @812
    _Z8ByteSwapPvii @813
    _Z8CholeskyP10_PStreamGV @814
    _Z8CholeskyP8_PStream @815
    _Z8FindNodeP5_Nodei @816
    _Z8FreeDWinP10_PStreamGV @817
    _Z8FreeDWinP5_DWin @818
    _Z8FreeDWinP8_PStream @819
    _Z8FreeTreeP5_Node @820
    _Z8GetTokenP6_iobufPc @821
    _Z8InitDWinP10_PStreamGV @822
    _Z8InitDWinP5_DWin @823
    _Z8InitDWinP8_PStream @824
    _Z8LoadTreeP8_TreeSetP6_iobufP5_Tree5Mtype @825
    _Z8bisearchPdlldPlS0_ @826
    _Z8blackmanPdl @827
    _Z8cfftturnP15DCOMPLEX_STRUCT @828
    _Z8ddcallocii @829
    _Z8decibelpPdl @830
    _Z8decimateP14DVECTOR_STRUCTl @831
    _Z8dmatfreePPdi @832
    _Z8dmiallocP14DMATRIX_STRUCT @833
    _Z8dvabssumP14DVECTOR_STRUCT @834
    _Z8dvcumsumP14DVECTOR_STRUCT @835
    _Z8dviallocP14DVECTOR_STRUCT @836
    _Z8dvnfdumpP6_iobufP14DVECTOR_STRUCTz @837
    _Z8dvriswapP14DVECTOR_STRUCT @838
    _Z8dvscoperP14DVECTOR_STRUCTPKcd @839
    _Z8dvsquareP14DVECTOR_STRUCT @840
    _Z8dvunwrapP14DVECTOR_STRUCTd @841
    _Z8f0track5P16DMATRICES_STRUCTP15DVECTORS_STRUCTdi @842
    _Z8ffcallocii @843
    _Z8fftshiftPdS_l @844
    _Z8fftturnfPfS_l @845
    _Z8fgetlinePcP6_iobuf @846
    _Z8fmatfreePPfi @847
    _Z8fvabssumP14FVECTOR_STRUCT @848
    _Z8fvcumsumP14FVECTOR_STRUCT @849
    _Z8fviallocP14FVECTOR_STRUCT @850
    _Z8fvriswapP14FVECTOR_STRUCT @851
    _Z8fvscoperP14FVECTOR_STRUCTPKcf @852
    _Z8fvsquareP14FVECTOR_STRUCT @853
    _Z8getf0varP14DVECTOR_STRUCTS0_ @854
    _Z8hammingfPfl @855
    _Z8hanningfPfl @856
    _Z8heapoverv @857
    _Z8imatfreePPii @858
    _Z8interp1lP14DVECTOR_STRUCTS0_S0_ @859
    _Z8interp1qP14DVECTOR_STRUCTS0_S0_ @860
    _Z8lmatfreePPli @861
    _Z8lmiallocP14LMATRIX_STRUCT @862
    _Z8lvabssumP14LVECTOR_STRUCT @863
    _Z8lvcumsumP14LVECTOR_STRUCT @864
    _Z8lviallocP14LVECTOR_STRUCT @865
    _Z8lvriswapP14LVECTOR_STRUCT @866
    _Z8lvscoperP14LVECTOR_STRUCTPKcd @867
    _Z8lvsquareP14LVECTOR_STRUCT @868
    _Z8mlpgGradP10_PStreamGVidddii @869
    _Z8name2numPc @870
    _Z8nboxcarfPfl @871
    _Z8nextpow2l @872
    _Z8nhammingPdl @873
    _Z8nhanningPdl @874
    _Z8printerr14OPTIONS_STRUCTPKcz @875
    _Z8randsortPvii @876
    _Z8smatfreePPsi @877
    _Z8strclonePKc @878
    _Z8svabssumP14SVECTOR_STRUCT @879
    _Z8sviallocP14SVECTOR_STRUCT @880
    _Z8svriswapP14SVECTOR_STRUCT @881
    _Z8svscoperP14SVECTOR_STRUCTPKcd @882
    _Z8svsquareP14SVECTOR_STRUCT @883
    _Z8swaplongPll @884
    _Z8xdcallocl @885
    _Z8xdcpowerP15DCOMPLEX_STRUCT @886
    _Z8xdczerosl @887
    _Z8xdmallocll @888
    _Z8xdmsfreeP16DMATRICES_STRUCT @889
    _Z8xdvallocl @890
    _Z8xdvangleP14DVECTOR_STRUCT @891
    _Z8xdvcloneP14DVECTOR_STRUCT @892
    _Z8xdvcspecP14DVECTOR_STRUCTS0_ @893
    _Z8xdvfindvP14DVECTOR_STRUCT @894
    _Z8xdvmorphP14DVECTOR_STRUCTS0_d @895
    _Z8xdvrandnl @896
    _Z8xdvrcepsP14DVECTOR_STRUCTl @897
    _Z8xdvremapP14DVECTOR_STRUCTP14LVECTOR_STRUCT @898
    _Z8xdvsfreeP15DVECTORS_STRUCT @899
    _Z8xfcallocl @900
    _Z8xfczerosl @901
    _Z8xfvallocl @902
    _Z8xfvcloneP14FVECTOR_STRUCT @903
    _Z8xfvrandnl @904
    _Z8xfvremapP14FVECTOR_STRUCTP14LVECTOR_STRUCT @905
    _Z8xfvsfreeP15FVECTORS_STRUCT @906
    _Z8xlmallocll @907
    _Z8xlmsfreeP16LMATRICES_STRUCT @908
    _Z8xlvallocl @909
    _Z8xlvcloneP14LVECTOR_STRUCT @910
    _Z8xlvremapP14LVECTOR_STRUCTS0_ @911
    _Z8xlvsfreeP15LVECTORS_STRUCT @912
    _Z8xsvallocl @913
    _Z8xsvcloneP14SVECTOR_STRUCT @914
    _Z8xsvremapP14SVECTOR_STRUCTP14LVECTOR_STRUCT @915
    _Z8xsvsfreeP15SVECTORS_STRUCT @916
    _Z8znrmlcf2d @917
    _Z9FindApPDFiP6_ModelP9_ModelSet @918
    _Z9FreeModelP6_Model @919
    _Z9GetTokenJP6_iobufPc @920
    _Z9blackmanfPfl @921
    _Z9calc_gradP10_PStreamGVi @922
    _Z9cfftshiftP15DCOMPLEX_STRUCT @923
    _Z9check_dirPc @924
    _Z9dmatallocii @925
    _Z9dvcumprodP14DVECTOR_STRUCT @926
    _Z9dvdecibelP14DVECTOR_STRUCT @927
    _Z9dvfftturnP14DVECTOR_STRUCT @928
    _Z9factoriali @929
    _Z9fftshiftfPfS_l @930
    _Z9fmatallocii @931
    _Z9freadlongPlliP6_iobuf @932
    _Z9fvcumprodP14FVECTOR_STRUCT @933
    _Z9fvdecibelP14FVECTOR_STRUCT @934
    _Z9fvfftturnP14FVECTOR_STRUCT @935
    _Z9getoptioniPPcPiP14OPTIONS_STRUCT @936
    _Z9imatallocii @937
    _Z9interp1lqP14DVECTOR_STRUCTS0_S0_ @938
    _Z9lmatallocii @939
    _Z9lvcumprodP14LVECTOR_STRUCT @940
    _Z9memcallocyy @941
    _Z9nblackmanPdl @942
    _Z9nhammingfPfl @943
    _Z9nhanningfPfl @944
    _Z9printhelp14OPTIONS_STRUCTPKcz @945
    _Z9pruningf0P14DMATRIX_STRUCTS0_P14DVECTOR_STRUCTdd @946
    _Z9pshannwinP13DVECTOR_CLASSl @947
    _Z9pshannwinP13DVECTOR_CLASSll @948
    _Z9quicksortPdllPl @949
    _Z9readsetupPcP14OPTIONS_STRUCT @950
    _Z9refineF02P14DVECTOR_STRUCTdS0_ldldlli @951
    _Z9refineF06P14DVECTOR_STRUCTdS0_ldldlli @952
    _Z9rfftanglePdl @953
    _Z9smatallocii @954
    _Z9spcmovedbP14DMATRIX_STRUCTddd @955
    _Z9spvec2powP14DVECTOR_STRUCTi @956
    _Z9ss_pythagdd @957
    _Z9ss_svdcmpPPdllS_S0_ @958
    _Z9swapfloatPfl @959
    _Z9swapshortPsl @960
    _Z9xcep2mcepP14DVECTOR_STRUCTlliid @961
    _Z9xdccreateP14DVECTOR_STRUCTS0_l @962
    _Z9xdmcutcolP14DMATRIX_STRUCTlll @963
    _Z9xdmcutrowP14DMATRIX_STRUCTlll @964
    _Z9xdmrinumslld @965
    _Z9xdmsallocl @966
    _Z9xdvcodiffP14DVECTOR_STRUCTd @967
    _Z9xdvcpowerP14DVECTOR_STRUCTS0_l @968
    _Z9xdvcumsumP14DVECTOR_STRUCT @969
    _Z9xdvfftabsP14DVECTOR_STRUCTl @970
    _Z9xdvfilterP14DVECTOR_STRUCTS0_S0_ @971
    _Z9xdvmpcepsP14DVECTOR_STRUCTl @972
    _Z9xdvriinitddd @973
    _Z9xdvriswapP14DVECTOR_STRUCT @974
    _Z9xdvsallocl @975
    _Z9xdvscevalP14DVECTOR_STRUCTPKcd @976
    _Z9xdvscfindP14DVECTOR_STRUCTPKcd @977
    _Z9xdvscoperP14DVECTOR_STRUCTPKcd @978
    _Z9xdvsetnewPdl @979
    _Z9xdvsquareP14DVECTOR_STRUCT @980
    _Z9xfccreateP14FVECTOR_STRUCTS0_l @981
    _Z9xfvcodiffP14FVECTOR_STRUCTd @982
    _Z9xfvcumsumP14FVECTOR_STRUCT @983
    _Z9xfvfftabsP14FVECTOR_STRUCTl @984
    _Z9xfvriinitfff @985
    _Z9xfvriswapP14FVECTOR_STRUCT @986
    _Z9xfvsallocl @987
    _Z9xfvscoperP14FVECTOR_STRUCTPKcf @988
    _Z9xfvsetnewPfl @989
    _Z9xfvsquareP14FVECTOR_STRUCT @990
    _Z9xgdweightdddl @991
    _Z9xlmcutcolP14LMATRIX_STRUCTlll @992
    _Z9xlmcutrowP14LMATRIX_STRUCTlll @993
    _Z9xlmrinumslll @994
    _Z9xlmsallocl @995
    _Z9xlvcodiffP14LVECTOR_STRUCTd @996
    _Z9xlvcumsumP14LVECTOR_STRUCT @997
    _Z9xlvriinitlll @998
    _Z9xlvriswapP14LVECTOR_STRUCT @999
    _Z9xlvsallocl @1000
    _Z9xlvscoperP14LVECTOR_STRUCTPKcd @1001
    _Z9xlvsetnewPll @1002
    _Z9xlvsquareP14LVECTOR_STRUCT @1003
    _Z9xsvcodiffP14SVECTOR_STRUCTd @1004
    _Z9xsvriinitlll @1005
    _Z9xsvriswapP14SVECTOR_STRUCT @1006
    _Z9xsvsallocl @1007
    _Z9xsvscoperP14SVECTOR_STRUCTPKcd @1008
    _Z9xsvsetnewPsl @1009
    _Z9xsvsquareP14SVECTOR_STRUCT @1010
    _Z9zifq2gpm2P14DMATRIX_STRUCTdl @1011
    _Z9zwvlt2ifqP14DMATRIX_STRUCTd @1012
    _ZN12RPHAPF_CLASS10randomspecEP13DVECTOR_CLASS @1013
    _ZN12RPHAPF_CLASS12getrandomapfEv @1014
    _ZN12RPHAPF_CLASS13gdtorandomapfEv @1015
    _ZN12RPHAPF_CLASS9getgrpdlyEv @1016
    _ZN12RPHAPF_CLASSC1Edl @1017
    _ZN12RPHAPF_CLASSC1EdlPl @1018
    _ZN12RPHAPF_CLASSC2Edl @1019
    _ZN12RPHAPF_CLASSC2EdlPl @1020
    _ZN12RPHAPF_CLASSD1Ev @1021
    _ZN12RPHAPF_CLASSD2Ev @1022
    _ZN13DMATRIX_CLASSC1Ell @1023
    _ZN13DMATRIX_CLASSC2Ell @1024
    _ZN13DMATRIX_CLASSD1Ev @1025
    _ZN13DMATRIX_CLASSD2Ev @1026
    _ZN13DVECTOR_CLASS5dvmaxEPl @1027
    _ZN13DVECTOR_CLASS5dvminEPl @1028
    _ZN13DVECTOR_CLASS7dvifreeEv @1029
    _ZN13DVECTOR_CLASS7dvrandnEv @1030
    _ZN13DVECTOR_CLASS8dviallocEd @1031
    _ZN13DVECTOR_CLASS8dviallocEv @1032
    _ZN13DVECTOR_CLASS9dvrandn_rEPl @1033
    _ZN13DVECTOR_CLASSC1El @1034
    _ZN13DVECTOR_CLASSC1ElPdS0_ @1035
    _ZN13DVECTOR_CLASSC1Eld @1036
    _ZN13DVECTOR_CLASSC2El @1037
    _ZN13DVECTOR_CLASSC2ElPdS0_ @1038
    _ZN13DVECTOR_CLASSC2Eld @1039
    _ZN13DVECTOR_CLASSD1Ev @1040
    _ZN13DVECTOR_CLASSD2Ev @1041
    _ZN5BASIC13simple_gnoiseEd @1042
    _ZN5BASIC13simple_randomEv @1043
    _ZN5BASIC15simple_gnoise_rEdPl @1044
    _ZN5BASIC15simple_random_rEPl @1045
    _ZN5BASIC3remEdd @1046
    _ZN5BASIC4cexpEPdS0_ @1047
    _ZN5BASIC4clogEPdS0_ @1048
    _ZN5BASIC5randnEv @1049
    _ZN5BASIC6roundtEd @1050
    _ZN5BASIC7randn_rEPl @1051
    _ZN6FFTOPE10dvfftshiftEP13DVECTOR_CLASS @1052
    _ZN6FFTOPE3fftEPdS0_li @1053
    _ZN6FFTOPE5dvfftEP13DVECTOR_CLASS @1054
    _ZN6FFTOPE6dvifftEP13DVECTOR_CLASS @1055
    _ZN6FFTOPE6xdvfftEP13DVECTOR_CLASS @1056
    _ZN6FFTOPE6xdvfftEP13DVECTOR_CLASSl @1057
    _ZN6FFTOPE7fftturnEPdS0_l @1058
    _ZN6FFTOPE7xdvifftEP13DVECTOR_CLASS @1059
    _ZN6FFTOPE7xdvifftEP13DVECTOR_CLASSl @1060
    _ZN6FFTOPE8fftshiftEPdS0_l @1061
    _ZN6FFTOPE8nextpow2El @1062
    _ZN6FFTOPE9dvfftturnEP13DVECTOR_CLASS @1063
    _ZN8VOPERATE6dvoperEP13DVECTOR_CLASSPKcS1_ @1064
    _ZN8VOPERATE6xdvcutEP13DVECTOR_CLASSll @1065
    _ZN8VOPERATE7dvpasteEP13DVECTOR_CLASSS1_lli @1066
    _ZN8VOPERATE7xdvcplxEP13DVECTOR_CLASSS1_ @1067
    _ZN8VOPERATE7xdvoperEP13DVECTOR_CLASSPKcS1_ @1068
    _ZN8VOPERATE8dvcumsumEP13DVECTOR_CLASS @1069
    _ZN8VOPERATE8dvscoperEP13DVECTOR_CLASSPKcd @1070
    _ZN8VOPERATE8xdvcloneEP13DVECTOR_CLASS @1071
    _ZN8VOPERATE9xdvcumsumEP13DVECTOR_CLASS @1072
    _ZN8VOPERATE9xdvscoperEP13DVECTOR_CLASSPKcd @1073
    _calculate_WUM_and_WUW @1074
    _change_mcep_order @1075
    _chk_weights @1076
    _cholskey_solve @1077
    _fft_freq @1078
    _frame_idx_from_smp @1079
    _gen_random_walk @1080
    _get_means_and_variances @1081
    _get_new_phase @1082
    _hts_logistic_func @1083
    _init_random_phase @1084
    _leaf_name_to_pdf @1085
    _leaf_name_to_pdf_idx @1086
    _logistic_func @1087
    _mceps_to_impulse_response @1088
    _mirror_vector @1089
    _mix_excitation @1090
    _mlsa_coefficients_to_mceps @1091
    _mlsa_coeffs_to_energy @1092
    _paramvocoder_mcep_to_mlsa @1093
    _paramvocoder_post_filter @1094
    _patterns_to_pcre @1095
    _pitch_sync_hann @1096
    _randomise_phase @1097
    _reset_filter @1098
    _to_real @1099
    _variance_scaling @1100
    _vector_shift @1101
    deriv @1102
    round @1103
    sb_cutwindhigh @1104 DATA
    sb_cutwindlow @1105 DATA
    seval @1106
    sinteg @1107
    sp_warning @1108 DATA
    spline @1109
    ss_cutwindhigh @1110 DATA
    ss_cutwindlow @1111 DATA
    ss_frphstable @1112 DATA
    ss_phstransw @1113 DATA
